target datalayout = "e-m:e-p270:32:32-p271:32:32-p272:64:64-i64:64-i128:128-f80:128-n8:16:32:64-S128"
target triple = "x86_64-pc-linux-gnu"

%"struct.cmPolicies::PolicyMap" = type { %"class.std::bitset.148" }
%"class.std::bitset.148" = type { %"struct.std::_Base_bitset.149" }
%"struct.std::_Base_bitset.149" = type { [9 x i64] }

; Function Attrs: mustprogress nounwind uwtable
define linkonce_odr dso_local noundef zeroext i1 @_ZNKSt12_Base_bitsetILm9EE9_M_is_anyEv(ptr noundef nonnull align 8 dereferenceable(72) %0) #6 comdat align 2 {
  %2 = alloca i1, align 1
  %3 = alloca ptr, align 8
  %4 = alloca i64, align 8
  %5 = alloca i32, align 4
  store ptr %0, ptr %3, align 8, !tbaa !177
  %6 = load ptr, ptr %3, align 8
  call void @llvm.lifetime.start.p0(i64 8, ptr %4) #3
  store i64 0, ptr %4, align 8, !tbaa !17
  br label %7

7:                                                ; preds = %19, %1
  %8 = load i64, ptr %4, align 8, !tbaa !17
  %9 = icmp ult i64 %8, 9
  br i1 %9, label %11, label %10

10:                                               ; preds = %7
  store i32 2, ptr %5, align 4
  br label %22

11:                                               ; preds = %7
  %12 = getelementptr inbounds nuw %"struct.std::_Base_bitset.149", ptr %6, i32 0, i32 0
  %13 = load i64, ptr %4, align 8, !tbaa !17
  %14 = getelementptr inbounds nuw [9 x i64], ptr %12, i64 0, i64 %13
  %15 = load i64, ptr %14, align 8, !tbaa !17
  %16 = icmp ne i64 %15, 0
  br i1 %16, label %17, label %18

17:                                               ; preds = %11
  store i1 true, ptr %2, align 1
  store i32 1, ptr %5, align 4
  br label %22

18:                                               ; preds = %11
  br label %19

19:                                               ; preds = %18
  %20 = load i64, ptr %4, align 8, !tbaa !17
  %21 = add i64 %20, 1
  store i64 %21, ptr %4, align 8, !tbaa !17
  br label %7, !llvm.loop !195

22:                                               ; preds = %17, %10
  call void @llvm.lifetime.end.p0(i64 8, ptr %4) #3
  %23 = load i32, ptr %5, align 4
  switch i32 %23, label %27 [
    i32 2, label %24
    i32 1, label %25
  ]

24:                                               ; preds = %22
  store i1 false, ptr %2, align 1
  br label %25

25:                                               ; preds = %24, %22
  %26 = load i1, ptr %2, align 1
  ret i1 %26

27:                                               ; preds = %22
  unreachable
}

; Function Attrs: mustprogress nounwind uwtable
define linkonce_odr dso_local noundef zeroext i1 @_ZNKSt6bitsetILm558EE4noneEv(ptr noundef nonnull align 8 dereferenceable(72) %0) #6 comdat align 2 {
  %2 = alloca ptr, align 8
  store ptr %0, ptr %2, align 8, !tbaa !54
  %3 = load ptr, ptr %2, align 8
  %4 = call noundef zeroext i1 @_ZNKSt12_Base_bitsetILm9EE9_M_is_anyEv(ptr noundef nonnull align 8 dereferenceable(72) %3) #3
  %5 = xor i1 %4, true
  ret i1 %5
}

; Function Attrs: mustprogress nounwind uwtable
define dso_local noundef zeroext i1 @_ZNK10cmPolicies9PolicyMap7IsEmptyEv(ptr noundef nonnull align 8 dereferenceable(72) %0) #6 align 2 {
  %2 = alloca ptr, align 8
  store ptr %0, ptr %2, align 8, !tbaa !52
  %3 = load ptr, ptr %2, align 8
  %4 = getelementptr inbounds nuw %"struct.cmPolicies::PolicyMap", ptr %3, i32 0, i32 0
  %5 = call noundef zeroext i1 @_ZNKSt6bitsetILm558EE4noneEv(ptr noundef nonnull align 8 dereferenceable(72) %4) #3
  ret i1 %5
}