; Function Attrs: mustprogress nofree norecurse nosync nounwind willreturn memory(argmem: read) uwtable
define dso_local noundef zeroext i1 @_ZNK10cmPolicies9PolicyMap7IsEmptyEv(ptr noundef nonnull readonly align 8 captures(none) dereferenceable(72) %0) local_unnamed_addr #8 align 2 {
  br label %2

2:                                                ; preds = %2, %1
  %.057.i.i = phi i64 [ 0, %1 ], [ %5, %2 ]
  %3 = getelementptr inbounds nuw [9 x i64], ptr %0, i64 0, i64 %.057.i.i
  %4 = load i64, ptr %3, align 8, !tbaa !17
  %.not.not.i.i = icmp ne i64 %4, 0
  %5 = add nuw nsw i64 %.057.i.i, 1
  %exitcond.not.i.i = icmp eq i64 %5, 9
  %or.cond.i.i = select i1 %.not.not.i.i, i1 true, i1 %exitcond.not.i.i
  br i1 %or.cond.i.i, label %_ZNKSt6bitsetILm558EE4noneEv.exit, label %2, !llvm.loop !194

_ZNKSt6bitsetILm558EE4noneEv.exit:                ; preds = %2
  %6 = xor i1 %.not.not.i.i, true
  ret i1 %6
}